; Function Attrs: nounwind uwtable
define noalias ptr @l_Std_Range_forIn_x27_loop___at___private_Lean_Meta_WHNF_0__Lean_Meta_toCtorWhenStructure___spec__3___boxed(ptr noundef %0, ptr noundef %1, ptr noundef %2, ptr noundef %3, ptr noundef %4, ptr noundef %5, ptr noundef %6, ptr noundef %7, ptr noundef readnone captures(none) %8, ptr noundef readnone captures(none) %9, ptr noundef %10, ptr noundef %11, ptr noundef %12, ptr noundef %13, ptr noundef %14) local_unnamed_addr #1 {
  %16 = tail call ptr @l_Std_Range_forIn_x27_loop___at___private_Lean_Meta_WHNF_0__Lean_Meta_toCtorWhenStructure___spec__3(ptr noundef %0, ptr noundef %1, ptr noundef %2, ptr noundef %3, ptr poison, ptr noundef %5, ptr noundef %6, ptr noundef %7, ptr poison, ptr poison, ptr poison, ptr poison, ptr poison, ptr noundef %13, ptr noundef %14)
  %17 = ptrtoint ptr %13 to i64
  %18 = and i64 %17, 1
  %.not = icmp eq i64 %18, 0
  br i1 %.not, label %19, label %lean_dec.exit28

19:                                               ; preds = %15
  %20 = load i32, ptr %13, align 4, !tbaa !4
  %21 = icmp sgt i32 %20, 1
  br i1 %21, label %22, label %24, !prof !11

22:                                               ; preds = %19
  %23 = add nsw i32 %20, -1
  store i32 %23, ptr %13, align 4, !tbaa !4
  br label %lean_dec.exit28

24:                                               ; preds = %19
  %.not.i = icmp eq i32 %20, 0
  br i1 %.not.i, label %lean_dec.exit28, label %25

25:                                               ; preds = %24
  tail call void @lean_dec_ref_cold(ptr noundef nonnull %13) #5
  br label %lean_dec.exit28

lean_dec.exit28:                                  ; preds = %25, %24, %22, %15
  %26 = ptrtoint ptr %12 to i64
  %27 = and i64 %26, 1
  %.not41 = icmp eq i64 %27, 0
  br i1 %.not41, label %28, label %lean_dec.exit27

28:                                               ; preds = %lean_dec.exit28
  %29 = load i32, ptr %12, align 4, !tbaa !4
  %30 = icmp sgt i32 %29, 1
  br i1 %30, label %31, label %33, !prof !11

31:                                               ; preds = %28
  %32 = add nsw i32 %29, -1
  store i32 %32, ptr %12, align 4, !tbaa !4
  br label %lean_dec.exit27

33:                                               ; preds = %28
  %.not.i29 = icmp eq i32 %29, 0
  br i1 %.not.i29, label %lean_dec.exit27, label %34

34:                                               ; preds = %33
  tail call void @lean_dec_ref_cold(ptr noundef nonnull %12) #5
  br label %lean_dec.exit27

lean_dec.exit27:                                  ; preds = %34, %33, %31, %lean_dec.exit28
  %35 = ptrtoint ptr %11 to i64
  %36 = and i64 %35, 1
  %.not42 = icmp eq i64 %36, 0
  br i1 %.not42, label %37, label %lean_dec.exit26

37:                                               ; preds = %lean_dec.exit27
  %38 = load i32, ptr %11, align 4, !tbaa !4
  %39 = icmp sgt i32 %38, 1
  br i1 %39, label %40, label %42, !prof !11

40:                                               ; preds = %37
  %41 = add nsw i32 %38, -1
  store i32 %41, ptr %11, align 4, !tbaa !4
  br label %lean_dec.exit26

42:                                               ; preds = %37
  %.not.i31 = icmp eq i32 %38, 0
  br i1 %.not.i31, label %lean_dec.exit26, label %43

43:                                               ; preds = %42
  tail call void @lean_dec_ref_cold(ptr noundef nonnull %11) #5
  br label %lean_dec.exit26

lean_dec.exit26:                                  ; preds = %43, %42, %40, %lean_dec.exit27
  %44 = ptrtoint ptr %10 to i64
  %45 = and i64 %44, 1
  %.not43 = icmp eq i64 %45, 0
  br i1 %.not43, label %46, label %lean_dec.exit25

46:                                               ; preds = %lean_dec.exit26
  %47 = load i32, ptr %10, align 4, !tbaa !4
  %48 = icmp sgt i32 %47, 1
  br i1 %48, label %49, label %51, !prof !11

49:                                               ; preds = %46
  %50 = add nsw i32 %47, -1
  store i32 %50, ptr %10, align 4, !tbaa !4
  br label %lean_dec.exit25

51:                                               ; preds = %46
  %.not.i33 = icmp eq i32 %47, 0
  br i1 %.not.i33, label %lean_dec.exit25, label %52

52:                                               ; preds = %51
  tail call void @lean_dec_ref_cold(ptr noundef nonnull %10) #5
  br label %lean_dec.exit25

lean_dec.exit25:                                  ; preds = %52, %51, %49, %lean_dec.exit26
  %53 = ptrtoint ptr %5 to i64
  %54 = and i64 %53, 1
  %.not44 = icmp eq i64 %54, 0
  br i1 %.not44, label %55, label %lean_dec.exit24

55:                                               ; preds = %lean_dec.exit25
  %56 = load i32, ptr %5, align 4, !tbaa !4
  %57 = icmp sgt i32 %56, 1
  br i1 %57, label %58, label %60, !prof !11

58:                                               ; preds = %55
  %59 = add nsw i32 %56, -1
  store i32 %59, ptr %5, align 4, !tbaa !4
  br label %lean_dec.exit24

60:                                               ; preds = %55
  %.not.i35 = icmp eq i32 %56, 0
  br i1 %.not.i35, label %lean_dec.exit24, label %61

61:                                               ; preds = %60
  tail call void @lean_dec_ref_cold(ptr noundef nonnull %5) #5
  br label %lean_dec.exit24

lean_dec.exit24:                                  ; preds = %61, %60, %58, %lean_dec.exit25
  %62 = ptrtoint ptr %4 to i64
  %63 = and i64 %62, 1
  %.not45 = icmp eq i64 %63, 0
  br i1 %.not45, label %64, label %lean_dec.exit23

64:                                               ; preds = %lean_dec.exit24
  %65 = load i32, ptr %4, align 4, !tbaa !4
  %66 = icmp sgt i32 %65, 1
  br i1 %66, label %67, label %69, !prof !11

67:                                               ; preds = %64
  %68 = add nsw i32 %65, -1
  store i32 %68, ptr %4, align 4, !tbaa !4
  br label %lean_dec.exit23

69:                                               ; preds = %64
  %.not.i37 = icmp eq i32 %65, 0
  br i1 %.not.i37, label %lean_dec.exit23, label %70

70:                                               ; preds = %69
  tail call void @lean_dec_ref_cold(ptr noundef nonnull %4) #5
  br label %lean_dec.exit23

lean_dec.exit23:                                  ; preds = %70, %69, %67, %lean_dec.exit24
  %71 = ptrtoint ptr %3 to i64
  %72 = and i64 %71, 1
  %.not46 = icmp eq i64 %72, 0
  br i1 %.not46, label %73, label %lean_dec.exit

73:                                               ; preds = %lean_dec.exit23
  %74 = load i32, ptr %3, align 4, !tbaa !4
  %75 = icmp sgt i32 %74, 1
  br i1 %75, label %76, label %78, !prof !11

76:                                               ; preds = %73
  %77 = add nsw i32 %74, -1
  store i32 %77, ptr %3, align 4, !tbaa !4
  br label %lean_dec.exit

78:                                               ; preds = %73
  %.not.i39 = icmp eq i32 %74, 0
  br i1 %.not.i39, label %lean_dec.exit, label %79

79:                                               ; preds = %78
  tail call void @lean_dec_ref_cold(ptr noundef nonnull %3) #5
  br label %lean_dec.exit

lean_dec.exit:                                    ; preds = %79, %78, %76, %lean_dec.exit23
  ret ptr %16
}